target datalayout = "e-m:e-p270:32:32-p271:32:32-p272:64:64-i64:64-i128:128-f80:128-n8:16:32:64-S128"
target triple = "x86_64-pc-linux-gnu"

%"class.icu_77::FormattedList" = type <{ %"class.icu_77::FormattedValue", ptr, i32, [4 x i8] }>
%"class.icu_77::FormattedValue" = type { ptr }

; Function Attrs: inlinehint mustprogress nounwind uwtable
define linkonce_odr void @_ZN6icu_7714FormattedValueC2Ev(ptr noundef nonnull align 8 dereferenceable(8) %0) unnamed_addr #2 comdat align 2 {
  %2 = alloca ptr, align 8
  store ptr %0, ptr %2, align 8, !tbaa !33
  %3 = load ptr, ptr %2, align 8
  store ptr getelementptr inbounds inrange(-16, 48) ({ [8 x ptr] }, ptr @_ZTVN6icu_7714FormattedValueE, i32 0, i32 0, i32 2), ptr %3, align 8, !tbaa !27
  ret void
}

; Function Attrs: mustprogress nounwind uwtable
define void @_ZN6icu_7713FormattedListC2EOS0_(ptr noundef nonnull align 8 dereferenceable(20) %0, ptr noundef nonnull align 8 dereferenceable(20) %1) unnamed_addr #0 align 2 {
  %3 = alloca ptr, align 8
  %4 = alloca ptr, align 8
  store ptr %0, ptr %3, align 8, !tbaa !25
  store ptr %1, ptr %4, align 8, !tbaa !25
  %5 = load ptr, ptr %3, align 8
  call void @_ZN6icu_7714FormattedValueC2Ev(ptr noundef nonnull align 8 dereferenceable(8) %5) #12
  store ptr getelementptr inbounds inrange(-16, 48) ({ [8 x ptr] }, ptr @_ZTVN6icu_7713FormattedListE, i32 0, i32 0, i32 2), ptr %5, align 8, !tbaa !27
  %6 = getelementptr inbounds nuw %"class.icu_77::FormattedList", ptr %5, i32 0, i32 1
  %7 = load ptr, ptr %4, align 8, !tbaa !25
  %8 = getelementptr inbounds nuw %"class.icu_77::FormattedList", ptr %7, i32 0, i32 1
  %9 = load ptr, ptr %8, align 8, !tbaa !29
  store ptr %9, ptr %6, align 8, !tbaa !29
  %10 = getelementptr inbounds nuw %"class.icu_77::FormattedList", ptr %5, i32 0, i32 2
  %11 = load ptr, ptr %4, align 8, !tbaa !25
  %12 = getelementptr inbounds nuw %"class.icu_77::FormattedList", ptr %11, i32 0, i32 2
  %13 = load i32, ptr %12, align 8, !tbaa !32
  store i32 %13, ptr %10, align 8, !tbaa !32
  %14 = load ptr, ptr %4, align 8, !tbaa !25
  %15 = getelementptr inbounds nuw %"class.icu_77::FormattedList", ptr %14, i32 0, i32 1
  store ptr null, ptr %15, align 8, !tbaa !29
  %16 = load ptr, ptr %4, align 8, !tbaa !25
  %17 = getelementptr inbounds nuw %"class.icu_77::FormattedList", ptr %16, i32 0, i32 2
  store i32 27, ptr %17, align 8, !tbaa !32
  ret void
}